; Function Attrs: mustprogress nounwind uwtable
define hidden void @_ZN3opt18maxsmt_solver_base20scoped_ensure_theoryD2Ev(ptr noundef nonnull readonly align 8 captures(none) dereferenceable(8) %0) unnamed_addr #5 align 2 personality ptr @__gxx_personality_v0 {
  %2 = load ptr, ptr %0, align 8, !tbaa !178
  %.not = icmp eq ptr %2, null
  br i1 %.not, label %4, label %3

3:                                                ; preds = %1
  invoke void @_ZN3smt14theory_wmaxsat11reset_localEv(ptr noundef nonnull align 8 dereferenceable(952) %2)
          to label %4 unwind label %5

4:                                                ; preds = %3, %1
  ret void

5:                                                ; preds = %3
  %6 = landingpad { ptr, i32 }
          catch ptr null
  %7 = extractvalue { ptr, i32 } %6, 0
  tail call void @__clang_call_terminate(ptr %7) #26
  unreachable
}